; Function Attrs: null_pointer_is_valid sspstrong uwtable
define internal i32 @dissect_rtse_RTTRapdu(i1 zeroext %0, ptr noundef %1, i32 noundef %2, ptr noundef %3, ptr noundef %4, i32 noundef %5) #0 {
  %7 = alloca ptr, align 8
  call void @llvm.lifetime.start.p0(i64 8, ptr nonnull %7) #4
  store ptr null, ptr %7, align 8
  %8 = getelementptr inbounds nuw i8, ptr %3, i64 48
  %9 = load ptr, ptr %8, align 8
  %10 = call i32 @dissect_ber_octet_string(i1 noundef zeroext false, ptr noundef %3, ptr noundef %4, ptr noundef %1, i32 noundef %2, i32 noundef %5, ptr noundef nonnull %7)
  %11 = load ptr, ptr %7, align 8
  %.not = icmp eq ptr %11, null
  br i1 %.not, label %17, label %12

12:                                               ; preds = %6
  %.not11 = icmp eq ptr %9, null
  br i1 %.not11, label %15, label %13

13:                                               ; preds = %12
  %14 = getelementptr inbounds nuw i8, ptr %9, i64 4
  store i32 318767104, ptr %14, align 4
  br label %15

15:                                               ; preds = %13, %12
  %16 = call i32 @dissect_ber_external_type(i1 noundef zeroext false, ptr noundef %4, ptr noundef nonnull %11, i32 noundef 0, ptr noundef %3, i32 noundef -1, ptr noundef nonnull @call_rtse_external_type_callback)
  br label %17

17:                                               ; preds = %15, %6
  %.0 = phi i32 [ %16, %15 ], [ %10, %6 ]
  call void @llvm.lifetime.end.p0(i64 8, ptr nonnull %7) #4
  ret i32 %.0
}